; Function Attrs: mustprogress nofree norecurse nosync nounwind willreturn memory(read, inaccessiblemem: none) uwtable
define noundef i64 @_ZTv0_n128_NK15colvarbias_meta18replica_share_freqEv(ptr nocapture noundef readonly %0) unnamed_addr #6 align 2 {
  %2 = load ptr, ptr %0, align 8
  %3 = getelementptr inbounds i8, ptr %2, i64 -128
  %4 = load i64, ptr %3, align 8
  %5 = getelementptr inbounds i8, ptr %0, i64 %4
  %6 = getelementptr inbounds i8, ptr %5, i64 304
  %7 = load i64, ptr %6, align 8
  ret i64 %7
}